; ModuleID = '35/1326.c'
source_filename = "35/1326.c"
target datalayout = "e-m:e-p270:32:32-p271:32:32-p272:64:64-i64:64-f80:128-n8:16:32:64-S128"
target triple = "x86_64-pc-linux-gnu"

@.str = private unnamed_addr constant [6 x i8] c"%d,%d\00", align 1
@.str.1 = private unnamed_addr constant [3 x i8] c"%d\00", align 1
@.str.2 = private unnamed_addr constant [7 x i8] c"%d+%d\0A\00", align 1
@.str.3 = private unnamed_addr constant [4 x i8] c"No\0A\00", align 1

; Function Attrs: noinline nounwind uwtable
define dso_local i32 @main() #0 {
  %1 = alloca i32, align 4
  %2 = alloca [8 x [8 x i32]], align 16
  %3 = alloca i32, align 4
  %4 = alloca i32, align 4
  %5 = alloca i32, align 4
  %6 = alloca i32, align 4
  %7 = alloca i32, align 4
  %8 = alloca i32, align 4
  %9 = alloca [8 x i32], align 16
  %10 = alloca [8 x i32], align 16
  %11 = alloca i32, align 4
  store i32 0, i32* %1, align 4
  %12 = call i32 (i8*, ...) @__isoc99_scanf(i8* getelementptr inbounds ([6 x i8], [6 x i8]* @.str, i64 0, i64 0), i32* %7, i32* %8)
  store i32 0, i32* %3, align 4
  br label %13

13:                                               ; preds = %34, %0
  %14 = load i32, i32* %3, align 4
  %15 = load i32, i32* %7, align 4
  %16 = icmp slt i32 %14, %15
  br i1 %16, label %17, label %37

17:                                               ; preds = %13
  store i32 0, i32* %4, align 4
  br label %18

18:                                               ; preds = %30, %17
  %19 = load i32, i32* %4, align 4
  %20 = load i32, i32* %8, align 4
  %21 = icmp slt i32 %19, %20
  br i1 %21, label %22, label %33

22:                                               ; preds = %18
  %23 = load i32, i32* %3, align 4
  %24 = sext i32 %23 to i64
  %25 = getelementptr inbounds [8 x [8 x i32]], [8 x [8 x i32]]* %2, i64 0, i64 %24
  %26 = load i32, i32* %4, align 4
  %27 = sext i32 %26 to i64
  %28 = getelementptr inbounds [8 x i32], [8 x i32]* %25, i64 0, i64 %27
  %29 = call i32 (i8*, ...) @__isoc99_scanf(i8* getelementptr inbounds ([3 x i8], [3 x i8]* @.str.1, i64 0, i64 0), i32* %28)
  br label %30

30:                                               ; preds = %22
  %31 = load i32, i32* %4, align 4
  %32 = add nsw i32 %31, 1
  store i32 %32, i32* %4, align 4
  br label %18

33:                                               ; preds = %18
  br label %34

34:                                               ; preds = %33
  %35 = load i32, i32* %3, align 4
  %36 = add nsw i32 %35, 1
  store i32 %36, i32* %3, align 4
  br label %13

37:                                               ; preds = %13
  store i32 0, i32* %3, align 4
  br label %38

38:                                               ; preds = %82, %37
  %39 = load i32, i32* %3, align 4
  %40 = load i32, i32* %7, align 4
  %41 = icmp slt i32 %39, %40
  br i1 %41, label %42, label %85

42:                                               ; preds = %38
  %43 = load i32, i32* %3, align 4
  %44 = sext i32 %43 to i64
  %45 = getelementptr inbounds [8 x i32], [8 x i32]* %10, i64 0, i64 %44
  store i32 0, i32* %45, align 4
  %46 = load i32, i32* %3, align 4
  %47 = sext i32 %46 to i64
  %48 = getelementptr inbounds [8 x [8 x i32]], [8 x [8 x i32]]* %2, i64 0, i64 %47
  %49 = getelementptr inbounds [8 x i32], [8 x i32]* %48, i64 0, i64 0
  %50 = load i32, i32* %49, align 16
  store i32 %50, i32* %5, align 4
  store i32 1, i32* %4, align 4
  br label %51

51:                                               ; preds = %78, %42
  %52 = load i32, i32* %4, align 4
  %53 = load i32, i32* %8, align 4
  %54 = icmp slt i32 %52, %53
  br i1 %54, label %55, label %81

55:                                               ; preds = %51
  %56 = load i32, i32* %3, align 4
  %57 = sext i32 %56 to i64
  %58 = getelementptr inbounds [8 x [8 x i32]], [8 x [8 x i32]]* %2, i64 0, i64 %57
  %59 = load i32, i32* %4, align 4
  %60 = sext i32 %59 to i64
  %61 = getelementptr inbounds [8 x i32], [8 x i32]* %58, i64 0, i64 %60
  %62 = load i32, i32* %61, align 4
  %63 = load i32, i32* %5, align 4
  %64 = icmp sgt i32 %62, %63
  br i1 %64, label %65, label %77

65:                                               ; preds = %55
  %66 = load i32, i32* %3, align 4
  %67 = sext i32 %66 to i64
  %68 = getelementptr inbounds [8 x [8 x i32]], [8 x [8 x i32]]* %2, i64 0, i64 %67
  %69 = load i32, i32* %4, align 4
  %70 = sext i32 %69 to i64
  %71 = getelementptr inbounds [8 x i32], [8 x i32]* %68, i64 0, i64 %70
  %72 = load i32, i32* %71, align 4
  store i32 %72, i32* %5, align 4
  %73 = load i32, i32* %4, align 4
  %74 = load i32, i32* %3, align 4
  %75 = sext i32 %74 to i64
  %76 = getelementptr inbounds [8 x i32], [8 x i32]* %10, i64 0, i64 %75
  store i32 %73, i32* %76, align 4
  br label %77

77:                                               ; preds = %65, %55
  br label %78

78:                                               ; preds = %77
  %79 = load i32, i32* %4, align 4
  %80 = add nsw i32 %79, 1
  store i32 %80, i32* %4, align 4
  br label %51

81:                                               ; preds = %51
  br label %82

82:                                               ; preds = %81
  %83 = load i32, i32* %3, align 4
  %84 = add nsw i32 %83, 1
  store i32 %84, i32* %3, align 4
  br label %38

85:                                               ; preds = %38
  store i32 0, i32* %4, align 4
  br label %86

86:                                               ; preds = %130, %85
  %87 = load i32, i32* %4, align 4
  %88 = load i32, i32* %8, align 4
  %89 = icmp slt i32 %87, %88
  br i1 %89, label %90, label %133

90:                                               ; preds = %86
  %91 = load i32, i32* %4, align 4
  %92 = sext i32 %91 to i64
  %93 = getelementptr inbounds [8 x i32], [8 x i32]* %9, i64 0, i64 %92
  store i32 0, i32* %93, align 4
  %94 = getelementptr inbounds [8 x [8 x i32]], [8 x [8 x i32]]* %2, i64 0, i64 0
  %95 = load i32, i32* %4, align 4
  %96 = sext i32 %95 to i64
  %97 = getelementptr inbounds [8 x i32], [8 x i32]* %94, i64 0, i64 %96
  %98 = load i32, i32* %97, align 4
  store i32 %98, i32* %6, align 4
  store i32 1, i32* %3, align 4
  br label %99

99:                                               ; preds = %126, %90
  %100 = load i32, i32* %3, align 4
  %101 = load i32, i32* %7, align 4
  %102 = icmp slt i32 %100, %101
  br i1 %102, label %103, label %129

103:                                              ; preds = %99
  %104 = load i32, i32* %3, align 4
  %105 = sext i32 %104 to i64
  %106 = getelementptr inbounds [8 x [8 x i32]], [8 x [8 x i32]]* %2, i64 0, i64 %105
  %107 = load i32, i32* %4, align 4
  %108 = sext i32 %107 to i64
  %109 = getelementptr inbounds [8 x i32], [8 x i32]* %106, i64 0, i64 %108
  %110 = load i32, i32* %109, align 4
  %111 = load i32, i32* %6, align 4
  %112 = icmp slt i32 %110, %111
  br i1 %112, label %113, label %125

113:                                              ; preds = %103
  %114 = load i32, i32* %3, align 4
  %115 = sext i32 %114 to i64
  %116 = getelementptr inbounds [8 x [8 x i32]], [8 x [8 x i32]]* %2, i64 0, i64 %115
  %117 = load i32, i32* %4, align 4
  %118 = sext i32 %117 to i64
  %119 = getelementptr inbounds [8 x i32], [8 x i32]* %116, i64 0, i64 %118
  %120 = load i32, i32* %119, align 4
  store i32 %120, i32* %6, align 4
  %121 = load i32, i32* %3, align 4
  %122 = load i32, i32* %4, align 4
  %123 = sext i32 %122 to i64
  %124 = getelementptr inbounds [8 x i32], [8 x i32]* %9, i64 0, i64 %123
  store i32 %121, i32* %124, align 4
  br label %125

125:                                              ; preds = %113, %103
  br label %126

126:                                              ; preds = %125
  %127 = load i32, i32* %3, align 4
  %128 = add nsw i32 %127, 1
  store i32 %128, i32* %3, align 4
  br label %99

129:                                              ; preds = %99
  br label %130

130:                                              ; preds = %129
  %131 = load i32, i32* %4, align 4
  %132 = add nsw i32 %131, 1
  store i32 %132, i32* %4, align 4
  br label %86

133:                                              ; preds = %86
  store i32 1, i32* %11, align 4
  store i32 0, i32* %3, align 4
  br label %134

134:                                              ; preds = %180, %133
  %135 = load i32, i32* %3, align 4
  %136 = load i32, i32* %7, align 4
  %137 = icmp slt i32 %135, %136
  br i1 %137, label %138, label %183

138:                                              ; preds = %134
  store i32 0, i32* %4, align 4
  br label %139

139:                                              ; preds = %176, %138
  %140 = load i32, i32* %4, align 4
  %141 = load i32, i32* %8, align 4
  %142 = icmp slt i32 %140, %141
  br i1 %142, label %143, label %179

143:                                              ; preds = %139
  %144 = load i32, i32* %3, align 4
  %145 = sext i32 %144 to i64
  %146 = getelementptr inbounds [8 x [8 x i32]], [8 x [8 x i32]]* %2, i64 0, i64 %145
  %147 = load i32, i32* %3, align 4
  %148 = sext i32 %147 to i64
  %149 = getelementptr inbounds [8 x i32], [8 x i32]* %10, i64 0, i64 %148
  %150 = load i32, i32* %149, align 4
  %151 = sext i32 %150 to i64
  %152 = getelementptr inbounds [8 x i32], [8 x i32]* %146, i64 0, i64 %151
  %153 = load i32, i32* %152, align 4
  %154 = load i32, i32* %4, align 4
  %155 = sext i32 %154 to i64
  %156 = getelementptr inbounds [8 x i32], [8 x i32]* %9, i64 0, i64 %155
  %157 = load i32, i32* %156, align 4
  %158 = sext i32 %157 to i64
  %159 = getelementptr inbounds [8 x [8 x i32]], [8 x [8 x i32]]* %2, i64 0, i64 %158
  %160 = load i32, i32* %4, align 4
  %161 = sext i32 %160 to i64
  %162 = getelementptr inbounds [8 x i32], [8 x i32]* %159, i64 0, i64 %161
  %163 = load i32, i32* %162, align 4
  %164 = icmp eq i32 %153, %163
  br i1 %164, label %165, label %175

165:                                              ; preds = %143
  %166 = load i32, i32* %4, align 4
  %167 = sext i32 %166 to i64
  %168 = getelementptr inbounds [8 x i32], [8 x i32]* %9, i64 0, i64 %167
  %169 = load i32, i32* %168, align 4
  %170 = load i32, i32* %3, align 4
  %171 = sext i32 %170 to i64
  %172 = getelementptr inbounds [8 x i32], [8 x i32]* %10, i64 0, i64 %171
  %173 = load i32, i32* %172, align 4
  %174 = call i32 (i8*, ...) @printf(i8* getelementptr inbounds ([7 x i8], [7 x i8]* @.str.2, i64 0, i64 0), i32 %169, i32 %173)
  store i32 0, i32* %11, align 4
  br label %179

175:                                              ; preds = %143
  br label %176

176:                                              ; preds = %175
  %177 = load i32, i32* %4, align 4
  %178 = add nsw i32 %177, 1
  store i32 %178, i32* %4, align 4
  br label %139

179:                                              ; preds = %165, %139
  br label %180

180:                                              ; preds = %179
  %181 = load i32, i32* %3, align 4
  %182 = add nsw i32 %181, 1
  store i32 %182, i32* %3, align 4
  br label %134

183:                                              ; preds = %134
  %184 = load i32, i32* %11, align 4
  %185 = icmp ne i32 %184, 0
  br i1 %185, label %186, label %188

186:                                              ; preds = %183
  %187 = call i32 (i8*, ...) @printf(i8* getelementptr inbounds ([4 x i8], [4 x i8]* @.str.3, i64 0, i64 0))
  br label %188

188:                                              ; preds = %186, %183
  ret i32 0
}

declare dso_local i32 @__isoc99_scanf(i8*, ...) #1

declare dso_local i32 @printf(i8*, ...) #1


!llvm.module.flags = !{!0}
!llvm.ident = !{!1}

!0 = !{i32 1, !"wchar_size", i32 4}
!1 = !{!"clang version 10.0.0-4ubuntu1 "}
